(dp0
S'cellidexe'
p1
S'/home/mjs/Berufspraktikum/imaging/cell_id-1.4.3_HACK/cell'
p2
sS'spottyfile'
p3
S'/home/mjs/workspace/Berufspraktikum/src/spottyG.R'
p4
sS'workingdir'
p5
S'/home/mjs/Berufspraktikum/working_directory'
p6
sS'fijiexe'
p7
S'/usr/bin/fiji'
p8
s.