(dp0
S'cellidexe'
p1
S'/home/basar/Personal/Martin_Seeger/imaging/cell_id-143_hack/cell'
p2
sS'spottyfile'
p3
S'/home/basar/Personal/Martin_Seeger/workspace/Berufspraktikum/src/spottyG.R'
p4
sS'workingdir'
p5
S'/home/basar/Personal/Martin_Seeger/working_directory'
p6
sS'fijiexe'
p7
S'/home/basar/Personal/Martin_Seeger/imaging/Fiji.app/fiji-linux64'
p8
s.