(dp0
S'MAX_20140107_Pcl1_Sic1_A1_0min_50pc_1_4'
p1
(lp2
S'MAX_20140107_Pcl1_Sic1_A1_0min_50pc_1_w4NG_mask_cells.tif'
p3
aS'MAX_20140107_Pcl1_Sic1_A1_0min_50pc_1'
p4
aF311.5
aF252.0
asS'MAX_20140107_Pcl1_Sic1_A1_0min_50pc_1_3'
p5
(lp6
g3
ag4
aF288.0
aF343.0
asS'MAX_20140107_Pcl1_Sic1_A1_0min_50pc_1_2'
p7
(lp8
g3
ag4
aF186.0
aF459.5
asS'MAX_20140107_Pcl1_Sic1_A1_0min_50pc_1_1'
p9
(lp10
g3
ag4
aF265.5
aF209.5
as.